target datalayout = "e-m:e-p270:32:32-p271:32:32-p272:64:64-i64:64-i128:128-f80:128-n8:16:32:64-S128"
target triple = "x86_64-pc-linux-gnu"

%struct.MultiSortSupportData = type { i32, [0 x %struct.SortSupportData] }
%struct.SortSupportData = type { ptr, i32, i8, i8, i16, ptr, ptr, i8, ptr, ptr, ptr }
%struct.SortItem = type { ptr, ptr, i32 }

; Function Attrs: inlinehint nounwind uwtable
define internal i32 @ApplySortComparator(i64 noundef %0, i1 noundef zeroext %1, i64 noundef %2, i1 noundef zeroext %3, ptr noundef %4) #3 {
  %6 = alloca i64, align 8
  %7 = alloca i8, align 1
  %8 = alloca i64, align 8
  %9 = alloca i8, align 1
  %10 = alloca ptr, align 8
  %11 = alloca i32, align 4
  store i64 %0, ptr %6, align 8
  %12 = zext i1 %1 to i8
  store i8 %12, ptr %7, align 1
  store i64 %2, ptr %8, align 8
  %13 = zext i1 %3 to i8
  store i8 %13, ptr %9, align 1
  store ptr %4, ptr %10, align 8
  call void @llvm.lifetime.start.p0(i64 4, ptr %11) #8
  %14 = load i8, ptr %7, align 1, !range !6, !noundef !7
  %15 = trunc i8 %14 to i1
  br i1 %15, label %16, label %29

16:                                               ; preds = %5
  %17 = load i8, ptr %9, align 1, !range !6, !noundef !7
  %18 = trunc i8 %17 to i1
  br i1 %18, label %19, label %20

19:                                               ; preds = %16
  store i32 0, ptr %11, align 4
  br label %28

20:                                               ; preds = %16
  %21 = load ptr, ptr %10, align 8
  %22 = getelementptr inbounds nuw %struct.SortSupportData, ptr %21, i32 0, i32 3
  %23 = load i8, ptr %22, align 1, !range !6, !noundef !7
  %24 = trunc i8 %23 to i1
  br i1 %24, label %25, label %26

25:                                               ; preds = %20
  store i32 -1, ptr %11, align 4
  br label %27

26:                                               ; preds = %20
  store i32 1, ptr %11, align 4
  br label %27

27:                                               ; preds = %26, %25
  br label %28

28:                                               ; preds = %27, %19
  br label %63

29:                                               ; preds = %5
  %30 = load i8, ptr %9, align 1, !range !6, !noundef !7
  %31 = trunc i8 %30 to i1
  br i1 %31, label %32, label %40

32:                                               ; preds = %29
  %33 = load ptr, ptr %10, align 8
  %34 = getelementptr inbounds nuw %struct.SortSupportData, ptr %33, i32 0, i32 3
  %35 = load i8, ptr %34, align 1, !range !6, !noundef !7
  %36 = trunc i8 %35 to i1
  br i1 %36, label %37, label %38

37:                                               ; preds = %32
  store i32 1, ptr %11, align 4
  br label %39

38:                                               ; preds = %32
  store i32 -1, ptr %11, align 4
  br label %39

39:                                               ; preds = %38, %37
  br label %62

40:                                               ; preds = %29
  %41 = load ptr, ptr %10, align 8
  %42 = getelementptr inbounds nuw %struct.SortSupportData, ptr %41, i32 0, i32 6
  %43 = load ptr, ptr %42, align 8
  %44 = load i64, ptr %6, align 8
  %45 = load i64, ptr %8, align 8
  %46 = load ptr, ptr %10, align 8
  %47 = call i32 %43(i64 noundef %44, i64 noundef %45, ptr noundef %46)
  store i32 %47, ptr %11, align 4
  %48 = load ptr, ptr %10, align 8
  %49 = getelementptr inbounds nuw %struct.SortSupportData, ptr %48, i32 0, i32 2
  %50 = load i8, ptr %49, align 4, !range !6, !noundef !7
  %51 = trunc i8 %50 to i1
  br i1 %51, label %52, label %61

52:                                               ; preds = %40
  %53 = load i32, ptr %11, align 4
  %54 = icmp slt i32 %53, 0
  br i1 %54, label %55, label %56

55:                                               ; preds = %52
  br label %59

56:                                               ; preds = %52
  %57 = load i32, ptr %11, align 4
  %58 = sub i32 0, %57
  br label %59

59:                                               ; preds = %56, %55
  %60 = phi i32 [ 1, %55 ], [ %58, %56 ]
  store i32 %60, ptr %11, align 4
  br label %61

61:                                               ; preds = %59, %40
  br label %62

62:                                               ; preds = %61, %39
  br label %63

63:                                               ; preds = %62, %28
  %64 = load i32, ptr %11, align 4
  call void @llvm.lifetime.end.p0(i64 4, ptr %11) #8
  ret i32 %64
}

; Function Attrs: nounwind uwtable
define dso_local i32 @multi_sort_compare(ptr noundef %0, ptr noundef %1, ptr noundef %2) #0 {
  %4 = alloca i32, align 4
  %5 = alloca ptr, align 8
  %6 = alloca ptr, align 8
  %7 = alloca ptr, align 8
  %8 = alloca ptr, align 8
  %9 = alloca ptr, align 8
  %10 = alloca ptr, align 8
  %11 = alloca i32, align 4
  %12 = alloca i32, align 4
  %13 = alloca i32, align 4
  store ptr %0, ptr %5, align 8
  store ptr %1, ptr %6, align 8
  store ptr %2, ptr %7, align 8
  call void @llvm.lifetime.start.p0(i64 8, ptr %8) #8
  %14 = load ptr, ptr %7, align 8
  store ptr %14, ptr %8, align 8
  call void @llvm.lifetime.start.p0(i64 8, ptr %9) #8
  %15 = load ptr, ptr %5, align 8
  store ptr %15, ptr %9, align 8
  call void @llvm.lifetime.start.p0(i64 8, ptr %10) #8
  %16 = load ptr, ptr %6, align 8
  store ptr %16, ptr %10, align 8
  call void @llvm.lifetime.start.p0(i64 4, ptr %11) #8
  store i32 0, ptr %11, align 4
  br label %17

17:                                               ; preds = %68, %3
  %18 = load i32, ptr %11, align 4
  %19 = load ptr, ptr %8, align 8
  %20 = getelementptr inbounds nuw %struct.MultiSortSupportData, ptr %19, i32 0, i32 0
  %21 = load i32, ptr %20, align 8
  %22 = icmp slt i32 %18, %21
  br i1 %22, label %23, label %71

23:                                               ; preds = %17
  call void @llvm.lifetime.start.p0(i64 4, ptr %12) #8
  %24 = load ptr, ptr %9, align 8
  %25 = getelementptr inbounds nuw %struct.SortItem, ptr %24, i32 0, i32 0
  %26 = load ptr, ptr %25, align 8
  %27 = load i32, ptr %11, align 4
  %28 = sext i32 %27 to i64
  %29 = getelementptr inbounds i64, ptr %26, i64 %28
  %30 = load i64, ptr %29, align 8
  %31 = load ptr, ptr %9, align 8
  %32 = getelementptr inbounds nuw %struct.SortItem, ptr %31, i32 0, i32 1
  %33 = load ptr, ptr %32, align 8
  %34 = load i32, ptr %11, align 4
  %35 = sext i32 %34 to i64
  %36 = getelementptr inbounds i8, ptr %33, i64 %35
  %37 = load i8, ptr %36, align 1, !range !6, !noundef !7
  %38 = trunc i8 %37 to i1
  %39 = load ptr, ptr %10, align 8
  %40 = getelementptr inbounds nuw %struct.SortItem, ptr %39, i32 0, i32 0
  %41 = load ptr, ptr %40, align 8
  %42 = load i32, ptr %11, align 4
  %43 = sext i32 %42 to i64
  %44 = getelementptr inbounds i64, ptr %41, i64 %43
  %45 = load i64, ptr %44, align 8
  %46 = load ptr, ptr %10, align 8
  %47 = getelementptr inbounds nuw %struct.SortItem, ptr %46, i32 0, i32 1
  %48 = load ptr, ptr %47, align 8
  %49 = load i32, ptr %11, align 4
  %50 = sext i32 %49 to i64
  %51 = getelementptr inbounds i8, ptr %48, i64 %50
  %52 = load i8, ptr %51, align 1, !range !6, !noundef !7
  %53 = trunc i8 %52 to i1
  %54 = load ptr, ptr %8, align 8
  %55 = getelementptr inbounds nuw %struct.MultiSortSupportData, ptr %54, i32 0, i32 1
  %56 = load i32, ptr %11, align 4
  %57 = sext i32 %56 to i64
  %58 = getelementptr inbounds [0 x %struct.SortSupportData], ptr %55, i64 0, i64 %57
  %59 = call i32 @ApplySortComparator(i64 noundef %30, i1 noundef zeroext %38, i64 noundef %45, i1 noundef zeroext %53, ptr noundef %58)
  store i32 %59, ptr %12, align 4
  %60 = load i32, ptr %12, align 4
  %61 = icmp ne i32 %60, 0
  br i1 %61, label %62, label %64

62:                                               ; preds = %23
  %63 = load i32, ptr %12, align 4
  store i32 %63, ptr %4, align 4
  store i32 1, ptr %13, align 4
  br label %65

64:                                               ; preds = %23
  store i32 0, ptr %13, align 4
  br label %65

65:                                               ; preds = %64, %62
  call void @llvm.lifetime.end.p0(i64 4, ptr %12) #8
  %66 = load i32, ptr %13, align 4
  switch i32 %66, label %72 [
    i32 0, label %67
  ]

67:                                               ; preds = %65
  br label %68

68:                                               ; preds = %67
  %69 = load i32, ptr %11, align 4
  %70 = add i32 %69, 1
  store i32 %70, ptr %11, align 4
  br label %17, !llvm.loop !35

71:                                               ; preds = %17
  store i32 0, ptr %4, align 4
  store i32 1, ptr %13, align 4
  br label %72

72:                                               ; preds = %71, %65
  call void @llvm.lifetime.end.p0(i64 4, ptr %11) #8
  call void @llvm.lifetime.end.p0(i64 8, ptr %10) #8
  call void @llvm.lifetime.end.p0(i64 8, ptr %9) #8
  call void @llvm.lifetime.end.p0(i64 8, ptr %8) #8
  %73 = load i32, ptr %4, align 4
  ret i32 %73
}