; Function Attrs: nounwind uwtable
define dso_local i32 @multi_sort_compare(ptr noundef readonly captures(none) %0, ptr noundef readonly captures(none) %1, ptr noundef %2) #0 {
  %4 = load i32, ptr %2, align 8
  %5 = icmp sgt i32 %4, 0
  br i1 %5, label %.lr.ph, label %ApplySortComparator.exit.thread

.lr.ph:                                           ; preds = %3
  %6 = getelementptr inbounds nuw i8, ptr %0, i64 8
  %7 = getelementptr inbounds nuw i8, ptr %1, i64 8
  %8 = getelementptr inbounds nuw i8, ptr %2, i64 8
  br label %9

9:                                                ; preds = %.lr.ph, %ApplySortComparator.exit.thread25
  %10 = phi i32 [ %4, %.lr.ph ], [ %46, %ApplySortComparator.exit.thread25 ]
  %indvars.iv = phi i64 [ 0, %.lr.ph ], [ %indvars.iv.next, %ApplySortComparator.exit.thread25 ]
  %11 = load ptr, ptr %0, align 8
  %12 = getelementptr inbounds nuw i64, ptr %11, i64 %indvars.iv
  %13 = load i64, ptr %12, align 8
  %14 = load ptr, ptr %6, align 8
  %15 = getelementptr inbounds nuw i8, ptr %14, i64 %indvars.iv
  %16 = load i8, ptr %15, align 1, !range !8, !noundef !9
  %17 = trunc nuw i8 %16 to i1
  %18 = load ptr, ptr %1, align 8
  %19 = getelementptr inbounds nuw i64, ptr %18, i64 %indvars.iv
  %20 = load i64, ptr %19, align 8
  %21 = load ptr, ptr %7, align 8
  %22 = getelementptr inbounds nuw i8, ptr %21, i64 %indvars.iv
  %23 = load i8, ptr %22, align 1, !range !8, !noundef !9
  %24 = trunc nuw i8 %23 to i1
  %25 = getelementptr inbounds nuw [0 x %struct.SortSupportData], ptr %8, i64 0, i64 %indvars.iv
  br i1 %17, label %26, label %31

26:                                               ; preds = %9
  br i1 %24, label %ApplySortComparator.exit.thread25, label %27

27:                                               ; preds = %26
  %28 = getelementptr inbounds nuw i8, ptr %25, i64 13
  %29 = load i8, ptr %28, align 1, !range !8, !noundef !9
  %30 = trunc nuw i8 %29 to i1
  %..i = select i1 %30, i32 -1, i32 1
  br label %ApplySortComparator.exit.thread

31:                                               ; preds = %9
  br i1 %24, label %32, label %36

32:                                               ; preds = %31
  %33 = getelementptr inbounds nuw i8, ptr %25, i64 13
  %34 = load i8, ptr %33, align 1, !range !8, !noundef !9
  %35 = trunc nuw i8 %34 to i1
  %.12.i = select i1 %35, i32 1, i32 -1
  br label %ApplySortComparator.exit.thread

36:                                               ; preds = %31
  %37 = getelementptr inbounds nuw i8, ptr %25, i64 24
  %38 = load ptr, ptr %37, align 8
  %39 = tail call i32 %38(i64 noundef %13, i64 noundef %20, ptr noundef nonnull %25) #10
  %40 = getelementptr inbounds nuw i8, ptr %25, i64 12
  %41 = load i8, ptr %40, align 4, !range !8, !noundef !9
  %42 = trunc nuw i8 %41 to i1
  br i1 %42, label %43, label %ApplySortComparator.exit

43:                                               ; preds = %36
  %44 = icmp slt i32 %39, 0
  %45 = sub nsw i32 0, %39
  br i1 %44, label %ApplySortComparator.exit.thread, label %ApplySortComparator.exit

ApplySortComparator.exit:                         ; preds = %43, %36
  %.0.i = phi i32 [ %45, %43 ], [ %39, %36 ]
  %.not = icmp eq i32 %.0.i, 0
  br i1 %.not, label %ApplySortComparator.exit.ApplySortComparator.exit.thread25_crit_edge, label %ApplySortComparator.exit.thread

ApplySortComparator.exit.ApplySortComparator.exit.thread25_crit_edge: ; preds = %ApplySortComparator.exit
  %.pre = load i32, ptr %2, align 8
  br label %ApplySortComparator.exit.thread25

ApplySortComparator.exit.thread25:                ; preds = %ApplySortComparator.exit.ApplySortComparator.exit.thread25_crit_edge, %26
  %46 = phi i32 [ %.pre, %ApplySortComparator.exit.ApplySortComparator.exit.thread25_crit_edge ], [ %10, %26 ]
  %indvars.iv.next = add nuw nsw i64 %indvars.iv, 1
  %47 = sext i32 %46 to i64
  %48 = icmp slt i64 %indvars.iv.next, %47
  br i1 %48, label %9, label %ApplySortComparator.exit.thread, !llvm.loop !29

ApplySortComparator.exit.thread:                  ; preds = %ApplySortComparator.exit, %ApplySortComparator.exit.thread25, %43, %3, %32, %27
  %.2 = phi i32 [ %.12.i, %32 ], [ %..i, %27 ], [ 0, %3 ], [ %.0.i, %ApplySortComparator.exit ], [ 0, %ApplySortComparator.exit.thread25 ], [ 1, %43 ]
  ret i32 %.2
}